; Function Attrs: mustprogress uwtable
define hidden void @_ZN10macro_util30collect_arith_macro_candidatesEP4exprjRNS_16macro_candidatesE(ptr noundef nonnull align 8 dereferenceable(320) %0, ptr noundef captures(address) %1, i32 noundef %2, ptr noundef nonnull align 8 dereferenceable(64) %3) local_unnamed_addr #3 align 2 {
  %5 = getelementptr inbounds nuw i8, ptr %1, i64 4
  %6 = load i32, ptr %5, align 4
  %7 = and i32 %6, 65535
  %8 = icmp eq i32 %7, 0
  br i1 %8, label %9, label %_ZNK10macro_util8is_le_geEP4expr.exit.thread21

9:                                                ; preds = %4
  %10 = getelementptr inbounds nuw i8, ptr %1, i64 16
  %11 = load ptr, ptr %10, align 8, !tbaa !50
  %12 = getelementptr inbounds nuw i8, ptr %11, i64 24
  %13 = load ptr, ptr %12, align 8, !tbaa !55
  %.not.i.i.i.i = icmp eq ptr %13, null
  br i1 %.not.i.i.i.i, label %_ZNK10macro_util8is_le_geEP4expr.exit.thread21, label %_ZNK11ast_manager5is_eqEPK4expr.exit

_ZNK11ast_manager5is_eqEPK4expr.exit:             ; preds = %9
  %14 = load i32, ptr %13, align 8, !tbaa !60
  %15 = icmp eq i32 %14, 0
  %16 = getelementptr inbounds nuw i8, ptr %13, i64 4
  %17 = load i32, ptr %16, align 4
  %18 = icmp eq i32 %17, 2
  %19 = select i1 %15, i1 %18, i1 false
  br i1 %19, label %_ZNK11ast_manager5is_eqEPK4expr.exit18, label %_ZNK17arith_recognizers5is_geEPK4expr.exit.i

_ZNK17arith_recognizers5is_geEPK4expr.exit.i:     ; preds = %_ZNK11ast_manager5is_eqEPK4expr.exit
  %20 = load i32, ptr %13, align 8, !tbaa !60
  %21 = icmp eq i32 %20, 5
  %22 = getelementptr inbounds nuw i8, ptr %13, i64 4
  %23 = load i32, ptr %22, align 4
  %24 = and i32 %23, -2
  %25 = icmp eq i32 %24, 2
  %or.cond = select i1 %21, i1 %25, i1 false
  br i1 %or.cond, label %_ZNK11ast_manager5is_eqEPK4expr.exit18, label %_ZNK14bv_recognizers9is_bv_uleEPK4expr.exit.i

_ZNK14bv_recognizers9is_bv_uleEPK4expr.exit.i:    ; preds = %_ZNK17arith_recognizers5is_geEPK4expr.exit.i
  %.in.i = getelementptr inbounds nuw i8, ptr %0, i64 8
  %26 = load i32, ptr %.in.i, align 8, !tbaa !64
  %27 = icmp eq i32 %20, %26
  %28 = icmp eq i32 %24, 22
  %or.cond24 = select i1 %27, i1 %28, i1 false
  br i1 %or.cond24, label %_ZNK11ast_manager5is_eqEPK4expr.exit18, label %_ZNK10macro_util8is_le_geEP4expr.exit.thread21

_ZNK11ast_manager5is_eqEPK4expr.exit18:           ; preds = %_ZNK17arith_recognizers5is_geEPK4expr.exit.i, %_ZNK14bv_recognizers9is_bv_uleEPK4expr.exit.i, %_ZNK11ast_manager5is_eqEPK4expr.exit
  %29 = phi i32 [ %23, %_ZNK17arith_recognizers5is_geEPK4expr.exit.i ], [ %23, %_ZNK14bv_recognizers9is_bv_uleEPK4expr.exit.i ], [ 2, %_ZNK11ast_manager5is_eqEPK4expr.exit ]
  %30 = phi i32 [ 5, %_ZNK17arith_recognizers5is_geEPK4expr.exit.i ], [ %20, %_ZNK14bv_recognizers9is_bv_uleEPK4expr.exit.i ], [ 0, %_ZNK11ast_manager5is_eqEPK4expr.exit ]
  %31 = getelementptr inbounds nuw i8, ptr %1, i64 32
  %32 = load ptr, ptr %31, align 8, !tbaa !73
  %33 = getelementptr inbounds nuw i8, ptr %1, i64 40
  %34 = load ptr, ptr %33, align 8, !tbaa !73
  %35 = icmp ne i32 %30, 0
  %36 = icmp ne i32 %29, 2
  %.not26 = select i1 %35, i1 true, i1 %36
  tail call void @_ZN10macro_util30collect_arith_macro_candidatesEP4exprS1_S1_jbRNS_16macro_candidatesE(ptr noundef nonnull align 8 dereferenceable(320) %0, ptr noundef %32, ptr noundef %34, ptr noundef nonnull %1, i32 noundef %2, i1 noundef zeroext %.not26, ptr noundef nonnull align 8 dereferenceable(64) %3)
  tail call void @_ZN10macro_util30collect_arith_macro_candidatesEP4exprS1_S1_jbRNS_16macro_candidatesE(ptr noundef nonnull align 8 dereferenceable(320) %0, ptr noundef %34, ptr noundef %32, ptr noundef nonnull %1, i32 noundef %2, i1 noundef zeroext %.not26, ptr noundef nonnull align 8 dereferenceable(64) %3)
  br label %_ZNK10macro_util8is_le_geEP4expr.exit.thread21

_ZNK10macro_util8is_le_geEP4expr.exit.thread21:   ; preds = %9, %_ZNK14bv_recognizers9is_bv_uleEPK4expr.exit.i, %4, %_ZNK11ast_manager5is_eqEPK4expr.exit18
  ret void
}